; Function Attrs: nounwind uwtable
define void @dt_bauhaus_slider_set_format(ptr noundef %0, ptr noundef %1) local_unnamed_addr #0 {
  %3 = load atomic i64, ptr @dt_bh_get_type.static_g_define_type_id seq_cst, align 8
  %.not.i.i = icmp eq i64 %3, 0
  br i1 %.not.i.i, label %4, label %DT_BAUHAUS_WIDGET.exit

4:                                                ; preds = %2
  %5 = tail call i32 @g_once_init_enter(ptr noundef nonnull @dt_bh_get_type.static_g_define_type_id) #19
  %.not4.i.i = icmp eq i32 %5, 0
  br i1 %.not4.i.i, label %DT_BAUHAUS_WIDGET.exit, label %6

6:                                                ; preds = %4
  %7 = tail call fastcc i64 @dt_bh_get_type_once()
  tail call void @g_once_init_leave(ptr noundef nonnull @dt_bh_get_type.static_g_define_type_id, i64 noundef %7) #19
  br label %DT_BAUHAUS_WIDGET.exit

DT_BAUHAUS_WIDGET.exit:                           ; preds = %2, %4, %6
  %8 = load i64, ptr @dt_bh_get_type.static_g_define_type_id, align 8, !tbaa !6
  %9 = tail call ptr @g_type_check_instance_cast(ptr noundef %0, i64 noundef %8) #19
  %10 = getelementptr inbounds nuw i8, ptr %9, i64 40
  %11 = load i32, ptr %10, align 8, !tbaa !105
  %.not = icmp eq i32 %11, 1
  br i1 %.not, label %12, label %29

12:                                               ; preds = %DT_BAUHAUS_WIDGET.exit
  %13 = tail call ptr @g_intern_string(ptr noundef %1) #19
  %14 = getelementptr inbounds nuw i8, ptr %9, i64 488
  store ptr %13, ptr %14, align 8, !tbaa !174
  %strchr = tail call ptr @strchr(ptr nonnull dereferenceable(1) %1, i32 37)
  %.not10 = icmp eq ptr %strchr, null
  br i1 %.not10, label %29, label %15

15:                                               ; preds = %12
  %16 = getelementptr inbounds nuw i8, ptr %9, i64 444
  %17 = load float, ptr %16, align 4, !tbaa !172
  %18 = tail call reassoc nsz arcp contract afn float @llvm.fabs.f32(float %17)
  %19 = fcmp reassoc nsz arcp contract afn ugt float %18, 1.000000e+01
  br i1 %19, label %29, label %20

20:                                               ; preds = %15
  %21 = getelementptr inbounds nuw i8, ptr %9, i64 496
  %22 = load float, ptr %21, align 8, !tbaa !122
  %23 = fcmp reassoc nsz arcp contract afn oeq float %22, 1.000000e+00
  br i1 %23, label %24, label %25

24:                                               ; preds = %20
  store float 1.000000e+02, ptr %21, align 8, !tbaa !122
  br label %25

25:                                               ; preds = %24, %20
  %26 = getelementptr inbounds nuw i8, ptr %9, i64 448
  %27 = load i32, ptr %26, align 8, !tbaa !119
  %28 = add nsw i32 %27, -2
  store i32 %28, ptr %26, align 8, !tbaa !119
  br label %29

29:                                               ; preds = %12, %15, %25, %DT_BAUHAUS_WIDGET.exit
  ret void
}